GAS LISTING task.s 			page 1


   1              	.globl _start
   2              	.data
   3              	.set 	N, 100
   4              	.set	WRITE, 1
   5              	.set	EXIT, 60
   6 0000 00       	operation_symbol:	.skip 1
   7 0001 00000000 	tmp_number:		.skip N
   7      00000000 
   7      00000000 
   7      00000000 
   7      00000000 
   8 0065 00       	current_numeral:	.skip 1
   9 0066 00000000 	big_empty: 		.skip N
   9      00000000 
   9      00000000 
   9      00000000 
   9      00000000 
  10 00ca 00       	small_empty: 		.skip 1
  11 00cb 30313233 	numeral_char_tab:	.ascii "0123456789ABCDEF"
  11      34353637 
  11      38394142 
  11      43444546 
  12              	numerals_count = 	. - numeral_char_tab
  13 00db 2B       	op_add:	.ascii "+"
  14 00dc 2D       	op_sub:	.ascii "-"
  15 00dd 2A       	op_mov:	.ascii "*"
  16 00de 2F       	op_div:	.ascii "/"
  17 00df 7E       	op_unary_minus: .ascii "~"
  18 00e0 26       	op_and:	.ascii "&"
  19 00e1 7C       	op_or:	.ascii "|"
  20 00e2 23       	op_xor:	.ascii "#"
  21 00e3 5E       	op_exp: .ascii "^"
  22              	operations_count = . - op_add
  23 00e4 3078     	hex_prefix:	.ascii "0x"
  24 00e6 0A       	line_break:	.ascii "\n"
  25 00e7 536F6D65 	err_messg:	.ascii "Something wrong\n"
  25      7468696E 
  25      67207772 
  25      6F6E670A 
  26              	lerr_messg = . - err_messg
  27              	
  28              	.text
  29              	_start:
  30 0000 4D31D2   		xorq 	%r10, %r10		# r10 –∏–≥—Ä–∞–µ—Ç —Ä–æ–ª—å —Å—á—ë—Ç—á–∏–∫–∞ –∫–æ–ª–∏—á–µ—Å—Ç–≤–∞ –æ–ø–µ—Ä–∞–Ω–¥
  31 0003 4C8B1C24 		mov 	(%rsp), %r11
  32 0007 49FFCB   		dec 	%r11 			# r11 –ø–æ–∫–∞–∑—ã–≤–∞–µ—Ç —Å–∫–æ–ª—å–∫–æ –∞—Ä–≥—É–º–µ–Ω—Ç–æ–≤ –Ω–∞–º –ø–µ—Ä–µ–¥–∞–ª–
  33 000a 4983FB00 		cmp 	$0, %r11
  34 000e 0F846E03 		jz 	_error
  34      0000
  35              	
  36 0014 4C8D2425 		lea 	tmp_number, %r12 	# r12 - —É–∫–∞–∑–∞—Ç–µ–ª—å –Ω–∞ –∫–æ–Ω–µ—Ü —Å—Ç—Ä–æ–∫–∏ tmp_number
  36      00000000 
  37 001c 49C7C502 		mov	$2, %r13
  37      000000
  38 0023 4E8B34EC 		mov	(%rsp, %r13, 8), %r14	# r14 - —Ç–µ–∫—É—â–∏–π –∞—Ä–≥—É–º–µ–Ω—Ç
  39 0027 EB10     		jmp 	_parse_argument
  40              	
GAS LISTING task.s 			page 2


  41              	_result:
  42 0029 4983FA01 		cmp 	$1, %r10
  43 002d 0F8F4F03 		jg 	_error
  43      0000
  44 0033 58       		popq 	%rax
  45 0034 E97A0300 		jmp 	_numprint
  45      00
  46              	# ---------------------------------------------------
  47              	_parse_argument:
  48 0039 4831DB   		xor 	%rbx, %rbx
  49 003c 418A1E   		mov 	(%r14), %bl
  50 003f 80FB00   		cmp 	$0, %bl
  51 0042 7417     		jz 	_end_argument
  52              	
  53 0044 E82C0000 		call 	_grasp_operation_symbol
  53      00
  54 0049 E9750100 		jmp 	_execute_operation
  54      00
  55              	_continue_grasp:
  56 004e E85F0000 		call 	_grasp_numeral
  56      00
  57              	_continue_parse_argument:
  58 0053 4D31C0   		xor 	%r8, %r8
  59 0056 49FFC6   		inc 	%r14
  60 0059 EBDE     		jmp 	_parse_argument
  61              	_end_argument:
  62 005b E8B70000 		call 	_push_num_to_stack
  62      00
  63 0060 49FFCB   		dec 	%r11
  64 0063 74C4     		jz 	_result
  65 0065 4983C501 		add 	$1, %r13
  66 0069 4C89EA   		mov 	%r13, %rdx
  67 006c 4C01D2   		add 	%r10, %rdx
  68 006f 4C8B34D4 		mov	(%rsp, %rdx, 8), %r14
  69 0073 EBC4     		jmp 	_parse_argument
  70              	# ---------------------------------------------------
  71              	 _grasp_operation_symbol:
  72 0075 49C7C709 	 	mov 	$operations_count, %r15
  72      000000
  73 007c 48C7C101 		mov 	$1, %rcx
  73      000000
  74 0083 4C89F6   		mov	%r14, %rsi
  75 0086 488D3C25 		lea	op_add, %rdi
  75      00000000 
  76              	 _grasp_operation_loop:
  77 008e A6       		cmpsb
  78 008f 7409     		je	_end_grasp_operation
  79 0091 48FFCE   		dec	%rsi
  80 0094 49FFCF   		dec 	%r15
  81 0097 75F5     		jnz 	_grasp_operation_loop
  82 0099 C3       		ret
  83              	_end_grasp_operation:
  84 009a 48FFCF   		dec 	%rdi
  85 009d 4889FE   		mov 	%rdi, %rsi
  86 00a0 488D3C25 		lea 	operation_symbol, %rdi
  86      00000000 
  87 00a8 48C7C101 		mov 	$1, %rcx
GAS LISTING task.s 			page 3


  87      000000
  88 00af F3A4     		rep movsb
  89 00b1 C3       		ret
  90              	# ---------------------------------------------------
  91              	_grasp_numeral:
  92 00b2 49C7C710 		mov 	$numerals_count, %r15
  92      000000
  93 00b9 48C7C101 		mov 	$1, %rcx
  93      000000
  94 00c0 4C89F6   		mov 	%r14, %rsi
  95 00c3 488D3C25 		lea 	numeral_char_tab, %rdi
  95      00000000 
  96              	_grasp_numeral_loop:
  97 00cb A6       		cmpsb
  98 00cc 7433     		je	_end_grasp_numeral
  99 00ce 48FFCE   		dec	%rsi
 100 00d1 49FFCF   		dec 	%r15
 101 00d4 75F5     		jnz 	_grasp_numeral_loop
 102              	
 103 00d6 488D0425 		lea 	tmp_number, %rax
 103      00000000 
 104 00de 4C29E0   		sub 	%r12, %rax
 105 00e1 48F7D8   		neg 	%rax
 106 00e4 4883F801 		cmp 	$1, %rax
 107 00e8 0F859402 		jne 	_error
 107      0000
 108 00ee 488D3C25 		lea 	hex_prefix, %rdi
 108      00000000 
 109 00f6 48FFC7   		inc 	%rdi
 110 00f9 A6       		cmpsb
 111 00fa 7405     		je 	_end_grasp_numeral
 112              	
 113 00fc E9810200 		jmp 	_error
 113      00
 114              	_end_grasp_numeral:
 115 0101 48FFCF   		dec 	%rdi
 116 0104 4889FE   		mov 	%rdi, %rsi
 117 0107 4C89E7   		mov 	%r12, %rdi
 118 010a 48C7C101 		mov 	$1, %rcx
 118      000000
 119 0111 F3A4     		rep movsb
 120 0113 49FFC4   		inc 	%r12
 121 0116 C3       		ret
 122              	# ---------------------------------------------------
 123              	_push_num_to_stack:
 124 0117 488D3425 		lea 	tmp_number, %rsi
 124      00000000 
 125 011f 833E00   		cmp 	$0, (%rsi)
 126 0122 7410     		jz 	_end_push
 127 0124 E8410000 		call 	_parse_to_int
 127      00
 128 0129 5A       		pop 	%rdx
 129 012a 50       		pushq 	%rax
 130 012b 52       		push 	%rdx
 131 012c 49FFC2   		inc 	%r10
 132 012f E8010000 		call	_clear_tmp_number
 132      00
GAS LISTING task.s 			page 4


 133              	_end_push:
 134 0134 C3       		ret
 135              	# ---------------------------------------------------
 136              	_clear_tmp_number:
 137 0135 488D3425 		lea	big_empty, %rsi
 137      00000000 
 138 013d 488D3C25 		lea 	tmp_number, %rdi
 138      00000000 
 139 0145 48C7C164 		mov 	$N, %rcx
 139      000000
 140 014c EB19     		jmp 	_clear_string
 141              	_clear_operation_symbol:
 142 014e 488D3425 		lea	small_empty, %rsi
 142      00000000 
 143 0156 488D3C25 		lea 	operation_symbol, %rdi
 143      00000000 
 144 015e 48C7C101 		mov 	$1, %rcx
 144      000000
 145 0165 EB00     		jmp 	_clear_string
 146              	_clear_string:
 147 0167 F3A4     		rep movsb
 148 0169 C3       		ret
 149              	# ---------------------------------------------------
 150              	_parse_to_int:
 151 016a 488D3425 		lea 	tmp_number, %rsi
 151      00000000 
 152 0172 4831C0   		xor 	%rax, %rax
 153 0175 48C7C102 		mov 	$2, %rcx
 153      000000
 154 017c 488D3C25 		lea 	hex_prefix, %rdi
 154      00000000 
 155 0184 A6       		cmpsb
 156 0185 740C     		je 	_set_16
 157 0187 48FFCE   		dec 	%rsi
 158 018a 48C7C30A 		mov 	$10, %rbx
 158      000000
 159 0191 EB0A     		jmp 	_parse_to_int_loop
 160              	_set_16:
 161 0193 48FFC6   		inc 	%rsi
 162 0196 48C7C310 		mov 	$16, %rbx
 162      000000
 163              	_parse_to_int_loop:
 164 019d 8A0E     		mov 	(%rsi), %cl
 165 019f 80F900   		cmp 	$0, %cl
 166 01a2 7416     		jz 	_end_number
 167              	
 168 01a4 80E930   		sub 	$'0', %cl
 169 01a7 80F90A   		cmp 	$10, %cl
 170 01aa 7C03     		jl 	_add_numeral
 171 01ac 80E907   		sub 	$7, %cl
 172              	_add_numeral:
 173 01af 48F7E3   		mul 	%rbx
 174 01b2 4801C8   		add 	%rcx, %rax
 175 01b5 48FFC6   		inc 	%rsi
 176 01b8 EBE3     		jmp 	_parse_to_int_loop
 177              	_end_number:
 178 01ba 4C8D2425 		lea 	tmp_number, %r12
GAS LISTING task.s 			page 5


 178      00000000 
 179 01c2 C3       		ret
 180              	# ---------------------------------------------------
 181              	_execute_operation:
 182 01c3 48C7C600 		mov 	$operation_symbol, %rsi
 182      000000
 183 01ca 8A0E     		mov 	(%rsi), %cl
 184 01cc FEC1     		inc 	%cl
 185 01ce 80F901   		cmp 	$1, %cl
 186 01d1 0F8477FE 		je 	_continue_grasp
 186      FFFF
 187              	
 188 01d7 E83BFFFF 		call 	_push_num_to_stack
 188      FF
 189              	
 190 01dc 48C7C600 		mov 	$operation_symbol, %rsi
 190      000000
 191 01e3 48C7C101 		mov 	$1, %rcx
 191      000000
 192 01ea 488D3C25 		lea	op_add, %rdi
 192      00000000 
 193 01f2 A6       		cmpsb
 194 01f3 0F849A00 		je	add_op
 194      0000
 195              	
 196 01f9 48FFCE   		dec	%rsi
 197 01fc 668D3C25 		lea	op_sub, %di
 197      00000000 
 198 0204 A6       		cmpsb
 199 0205 0F849D00 		je	sub_op
 199      0000
 200              	
 201 020b 48FFCE   		dec	%rsi
 202 020e 668D3C25 		lea	op_mov, %di
 202      00000000 
 203 0216 A6       		cmpsb
 204 0217 0F84A000 		je	mul_op
 204      0000
 205              	
 206 021d 48FFCE   		dec	%rsi
 207 0220 668D3C25 		lea	op_div, %di
 207      00000000 
 208 0228 A6       		cmpsb
 209 0229 0F84A300 		je	div_op
 209      0000
 210              	
 211 022f 48FFCE   		dec	%rsi
 212 0232 668D3C25 		lea	op_unary_minus, %di
 212      00000000 
 213 023a A6       		cmpsb
 214 023b 0F84C400 		je	unary_minus
 214      0000
 215              	
 216 0241 48FFCE   		dec	%rsi
 217 0244 668D3C25 		lea	op_and, %di
 217      00000000 
 218 024c A6       		cmpsb
GAS LISTING task.s 			page 6


 219 024d 0F84D600 		je	and_op
 219      0000
 220              	
 221 0253 48FFCE   		dec	%rsi
 222 0256 668D3C25 		lea	op_or, %di
 222      00000000 
 223 025e A6       		cmpsb
 224 025f 0F84D800 		je	or_op
 224      0000
 225              	
 226 0265 48FFCE   		dec	%rsi
 227 0268 668D3C25 		lea	op_xor, %di
 227      00000000 
 228 0270 A6       		cmpsb
 229 0271 0F849E00 		je	xor_op
 229      0000
 230              	
 231 0277 48FFCE   		dec	%rsi
 232 027a 668D3C25 		lea	op_exp, %di
 232      00000000 
 233 0282 A6       		cmpsb
 234 0283 0F84C800 		je	exp_op
 234      0000
 235              	_end_execute_operation:
 236 0289 E8C0FEFF 		call 	_clear_operation_symbol
 236      FF
 237 028e E9C0FDFF 		jmp 	_continue_parse_argument
 237      FF
 238              	# ---------------------------------------------------
 239              	add_op:
 240 0293 4983FA02 		cmp	$2, %r10
 241 0297 0F8CE500 		jl 	_error
 241      0000
 242 029d 5B       		popq	%rbx
 243 029e 58       		popq 	%rax
 244 029f 4801D8   		add 	%rbx, %rax
 245 02a2 50       		pushq	%rax
 246 02a3 49FFCA   		dec 	%r10
 247 02a6 EBE1     		jmp 	_end_execute_operation
 248              	sub_op:
 249 02a8 4983FA02 		cmp	$2, %r10
 250 02ac 0F8CD000 		jl 	_error
 250      0000
 251 02b2 5B       		popq	%rbx
 252 02b3 58       		popq 	%rax
 253 02b4 4829D8   		sub 	%rbx, %rax
 254 02b7 50       		pushq	%rax
 255 02b8 49FFCA   		dec 	%r10
 256 02bb EBCC     		jmp 	_end_execute_operation
 257              	mul_op:
 258 02bd 4983FA02 		cmp	$2, %r10
 259 02c1 0F8CBB00 		jl 	_error
 259      0000
 260 02c7 5B       		popq	%rbx
 261 02c8 58       		popq 	%rax
 262 02c9 48F7E3   		mul 	%rbx
 263 02cc 50       		pushq	%rax
GAS LISTING task.s 			page 7


 264 02cd 49FFCA   		dec 	%r10
 265 02d0 EBB7     		jmp 	_end_execute_operation
 266              	div_op:
 267 02d2 4983FA02 		cmp	$2, %r10
 268 02d6 0F8CA600 		jl 	_error
 268      0000
 269 02dc 4831C9   		xor 	%rcx, %rcx
 270 02df 5B       		popq	%rbx
 271 02e0 58       		popq 	%rax
 272 02e1 4883F800 		cmp 	$0, %rax
 273 02e5 7D0A     		jge 	_do_div
 274 02e7 48C7C101 		mov 	$1, %rcx
 274      000000
 275 02ee 48F7D8   		neg 	%rax
 276              	_do_div:
 277 02f1 4831D2   		xor 	%rdx, %rdx
 278 02f4 48F7FB   		idiv 	%rbx
 279 02f7 4885C9   		test 	%rcx, %rcx
 280 02fa 7403     		jz 	_complete_div
 281 02fc 48F7D8   		neg 	%rax
 282              	_complete_div:
 283 02ff 50       		pushq 	%rax
 284 0300 49FFCA   		dec 	%r10
 285 0303 EB84     		jmp 	_end_execute_operation
 286              	unary_minus:
 287 0305 4983FA01 		cmp	$1, %r10
 288 0309 7C77     		jl 	_error
 289 030b 58       		popq 	%rax
 290 030c 48F7D8   		neg 	%rax
 291 030f 50       		pushq 	%rax
 292 0310 E974FFFF 		jmp 	_end_execute_operation
 292      FF
 293              	xor_op:
 294 0315 4983FA02 		cmp	$2, %r10
 295 0319 7C67     		jl 	_error
 296 031b 5B       		popq	%rbx
 297 031c 58       		popq 	%rax
 298 031d 4831D8   		xor 	%rbx, %rax
 299 0320 50       		pushq	%rax
 300 0321 49FFCA   		dec 	%r10
 301 0324 E960FFFF 		jmp 	_end_execute_operation
 301      FF
 302              	and_op:
 303 0329 4983FA02 		cmp	$2, %r10
 304 032d 7C53     		jl 	_error
 305 032f 5B       		popq	%rbx
 306 0330 58       		popq 	%rax
 307 0331 4821D8   		and 	%rbx, %rax
 308 0334 50       		pushq	%rax
 309 0335 49FFCA   		dec 	%r10
 310 0338 E94CFFFF 		jmp 	_end_execute_operation
 310      FF
 311              	or_op:
 312 033d 4983FA02 		cmp	$2, %r10
 313 0341 7C3F     		jl 	_error
 314 0343 5B       		popq	%rbx
 315 0344 58       		popq 	%rax
GAS LISTING task.s 			page 8


 316 0345 4809D8   		or 	%rbx, %rax
 317 0348 50       		pushq	%rax
 318 0349 49FFCA   		dec 	%r10
 319 034c E938FFFF 		jmp 	_end_execute_operation
 319      FF
 320              	exp_op:
 321 0351 4983FA02 		cmp	$2, %r10
 322 0355 7C2B     		jl 	_error
 323 0357 5B       		popq	%rbx
 324 0358 59       		popq 	%rcx
 325 0359 48C7C001 		mov 	$1, %rax
 325      000000
 326 0360 4883FB00 		cmp 	$0, %rbx
 327 0364 7F0B     		jg	_exp_loop
 328 0366 7411     		je 	_exp_save
 329 0368 48C7C000 		mov 	$0, %rax
 329      000000
 330 036f EB08     		jmp 	_exp_save
 331              	_exp_loop:
 332 0371 48F7E1   		mul 	%rcx
 333 0374 48FFCB   		dec 	%rbx
 334 0377 75F8     		jnz 	_exp_loop
 335              	_exp_save:
 336 0379 50       		pushq	%rax
 337 037a 49FFCA   		dec 	%r10
 338 037d E907FFFF 		jmp 	_end_execute_operation
 338      FF
 339              	# ---------------------------------------------------
 340              	_error:
 341 0382 48C7C001 		mov	$WRITE, %rax
 341      000000
 342 0389 48C7C701 		mov	$1, %rdi
 342      000000
 343 0390 488D3425 		lea	err_messg, %rsi
 343      00000000 
 344 0398 48C7C210 		mov	$lerr_messg, %rdx
 344      000000
 345 039f 0F05     		syscall
 346 03a1 EB00     		jmp	_exit
 347              	# ---------------------------------------------------
 348              	_exit:
 349 03a3 48C7C03C 		mov	$EXIT, %rax
 349      000000
 350 03aa 48C7C700 		mov	$0, %rdi
 350      000000
 351 03b1 0F05     		syscall
 352              	# ---------------------------------------------------
 353              	_numprint:
 354 03b3 4883F800 		cmp 	$0, %rax
 355 03b7 7D23     		jge 	_0b
 356 03b9 50       		pushq 	%rax
 357 03ba 48C7C001 		mov 	$WRITE, %rax
 357      000000
 358 03c1 48C7C701 		mov 	$1, %rdi
 358      000000
 359 03c8 48C7C600 		mov 	$op_sub, %rsi
 359      000000
GAS LISTING task.s 			page 9


 360 03cf 48C7C201 		mov 	$1, %rdx
 360      000000
 361 03d6 0F05     		syscall
 362 03d8 58       		popq 	%rax
 363 03d9 48F7D8   		neg 	%rax
 364              	_0b:
 365 03dc 4831C9   		xor	%rcx, %rcx
 366 03df 48C7C30A 		movq	$10, %rbx
 366      000000
 367              	_1b:
 368 03e6 4831D2   		xorq	%rdx, %rdx
 369 03e9 48F7F3   		div	%rbx
 370 03ec 52       		pushq	%rdx
 371 03ed 48FFC1   		inc	%rcx
 372 03f0 4885C0   		testq	%rax, %rax
 373 03f3 75F1     		jnz	_1b
 374              	_2b:
 375 03f5 58       		popq	%rax
 376 03f6 488D3425 		lea	numeral_char_tab, %rsi
 376      00000000 
 377 03fe 4801C6   		add 	%rax, %rsi
 378 0401 51       		push 	%rcx
 379 0402 48C7C001 		mov 	$WRITE, %rax
 379      000000
 380 0409 48C7C701 		mov 	$1, %rdi
 380      000000
 381 0410 48C7C201 		mov 	$1, %rdx
 381      000000
 382 0417 0F05     		syscall
 383 0419 59       		pop 	%rcx
 384 041a 48FFC9   		dec	%rcx
 385 041d 75D6     		jnz	_2b
 386 041f 488D3425 		lea 	line_break, %rsi
 386      00000000 
 387 0427 48C7C001 		mov 	$WRITE, %rax
 387      000000
 388 042e 48C7C701 		mov 	$1, %rdi
 388      000000
 389 0435 48C7C201 		mov 	$1, %rdx
 389      000000
 390 043c 0F05     		syscall
 391 043e E960FFFF 		jmp	_exit...
 391      FF
GAS LISTING task.s 			page 10


DEFINED SYMBOLS
              task.s:29     .text:0000000000000000 _start
              task.s:3      *ABS*:0000000000000064 N
              task.s:4      *ABS*:0000000000000001 WRITE
              task.s:5      *ABS*:000000000000003c EXIT
              task.s:6      .data:0000000000000000 operation_symbol
              task.s:7      .data:0000000000000001 tmp_number
              task.s:8      .data:0000000000000065 current_numeral
              task.s:9      .data:0000000000000066 big_empty
              task.s:10     .data:00000000000000ca small_empty
              task.s:11     .data:00000000000000cb numeral_char_tab
              task.s:12     *ABS*:0000000000000010 numerals_count
              task.s:13     .data:00000000000000db op_add
              task.s:14     .data:00000000000000dc op_sub
              task.s:15     .data:00000000000000dd op_mov
              task.s:16     .data:00000000000000de op_div
              task.s:17     .data:00000000000000df op_unary_minus
              task.s:18     .data:00000000000000e0 op_and
              task.s:19     .data:00000000000000e1 op_or
              task.s:20     .data:00000000000000e2 op_xor
              task.s:21     .data:00000000000000e3 op_exp
              task.s:22     *ABS*:0000000000000009 operations_count
              task.s:23     .data:00000000000000e4 hex_prefix
              task.s:24     .data:00000000000000e6 line_break
              task.s:25     .data:00000000000000e7 err_messg
              task.s:26     *ABS*:0000000000000010 lerr_messg
              task.s:340    .text:0000000000000382 _error
              task.s:47     .text:0000000000000039 _parse_argument
              task.s:41     .text:0000000000000029 _result
              task.s:353    .text:00000000000003b3 _numprint
              task.s:61     .text:000000000000005b _end_argument
              task.s:71     .text:0000000000000075 _grasp_operation_symbol
              task.s:181    .text:00000000000001c3 _execute_operation
              task.s:55     .text:000000000000004e _continue_grasp
              task.s:91     .text:00000000000000b2 _grasp_numeral
              task.s:57     .text:0000000000000053 _continue_parse_argument
              task.s:123    .text:0000000000000117 _push_num_to_stack
              task.s:76     .text:000000000000008e _grasp_operation_loop
              task.s:83     .text:000000000000009a _end_grasp_operation
              task.s:96     .text:00000000000000cb _grasp_numeral_loop
              task.s:114    .text:0000000000000101 _end_grasp_numeral
              task.s:133    .text:0000000000000134 _end_push
              task.s:150    .text:000000000000016a _parse_to_int
              task.s:136    .text:0000000000000135 _clear_tmp_number
              task.s:146    .text:0000000000000167 _clear_string
              task.s:141    .text:000000000000014e _clear_operation_symbol
              task.s:160    .text:0000000000000193 _set_16
              task.s:163    .text:000000000000019d _parse_to_int_loop
              task.s:177    .text:00000000000001ba _end_number
              task.s:172    .text:00000000000001af _add_numeral
              task.s:239    .text:0000000000000293 add_op
              task.s:248    .text:00000000000002a8 sub_op
              task.s:257    .text:00000000000002bd mul_op
              task.s:266    .text:00000000000002d2 div_op
              task.s:286    .text:0000000000000305 unary_minus
              task.s:302    .text:0000000000000329 and_op
              task.s:311    .text:000000000000033d or_op
GAS LISTING task.s 			page 11


              task.s:293    .text:0000000000000315 xor_op
              task.s:320    .text:0000000000000351 exp_op
              task.s:235    .text:0000000000000289 _end_execute_operation
              task.s:276    .text:00000000000002f1 _do_div
              task.s:282    .text:00000000000002ff _complete_div
              task.s:331    .text:0000000000000371 _exp_loop
              task.s:335    .text:0000000000000379 _exp_save
              task.s:348    .text:00000000000003a3 _exit
              task.s:364    .text:00000000000003dc _0b
              task.s:367    .text:00000000000003e6 _1b
              task.s:374    .text:00000000000003f5 _2b

NO UNDEFINED SYMBOLS
